; Function Attrs: nounwind uwtable
define internal i32 @_handle_get_my_kvsname(i32 noundef %0, i32 %1, ptr readnone captures(none) %2) #0 {
  %4 = tail call i32 @slurm_get_log_level() #8
  %5 = icmp sgt i32 %4, 6
  br i1 %5, label %6, label %7

6:                                                ; preds = %3
  tail call void (i32, ptr, ...) @slurm_log_var(i32 noundef 7, ptr noundef nonnull @.str.47, ptr noundef nonnull @plugin_type, ptr noundef nonnull @__func__._handle_get_my_kvsname) #8
  br label %7

7:                                                ; preds = %6, %3
  %8 = tail call ptr @client_resp_new() #8
  %9 = load i32, ptr getelementptr inbounds nuw (i8, ptr @job_info, i64 8), align 8
  %10 = load i32, ptr getelementptr inbounds nuw (i8, ptr @job_info, i64 16), align 8
  tail call void (ptr, ptr, ...) @slurm_xstrfmtcat(ptr noundef %8, ptr noundef nonnull @.str.48, i32 noundef 0, i32 noundef %9, i32 noundef %10) #8
  %11 = tail call i32 @client_resp_send(ptr noundef %8, i32 noundef %0) #8
  tail call void @client_resp_free(ptr noundef %8) #8
  %12 = tail call i32 @slurm_get_log_level() #8
  %13 = icmp sgt i32 %12, 6
  br i1 %13, label %14, label %15

14:                                               ; preds = %7
  tail call void (i32, ptr, ...) @slurm_log_var(i32 noundef 7, ptr noundef nonnull @.str.49, ptr noundef nonnull @plugin_type, ptr noundef nonnull @__func__._handle_get_my_kvsname) #8
  br label %15

15:                                               ; preds = %14, %7
  ret i32 %11
}